(i__main__
Sammy
p0
(dp1
S'sinks'
p2
(lp3
I5
aI5
aI5
aI5
aI5
asS'score'
p4
(lp5
I19
aI19
aI19
aI19
aI19
asS'oppname'
p6
(lp7
sS'ELO'
p8
(lp9
I1200
aF1206.05
aF1210.0568381365056
aF1214.3334125397855
aF1218.580370414055
aF1222.8307170179644
asS'opprank'
p10
(lp11
I1200
aS'Shawn Zhao'
p12
aF1202.45
ag12
aF1206.9431618634944
ag12
aF1211.1665874602145
ag12
aF1215.419629585945
ag12
asS'password'
p13
g13
sS'name'
p14
S'Alex Miller'
p15
sb.