(i__main__
Sammy
p0
(dp1
S'sinks'
p2
(lp3
I2
aI2
aI2
asS'score'
p4
(lp5
I21
aI21
aI21
asS'oppname'
p6
(lp7
sS'ELO'
p8
(lp9
I1200
aF1212.4499999553611
aF1224.899999460237
aF1237.3499939684477
asS'opprank'
p10
(lp11
F1373.0263189978912
aS'Shawn Zhao'
p12
aF1364.57631904253
ag12
aF1356.1263195376541
ag12
asS'password'
p13
g13
sS'name'
p14
S'Gavin Wong'
p15
sb.