(i__main__
Sammy
p0
(dp1
S'sinks'
p2
(lp3
I3
aI3
aI3
aI3
aI3
aI3
aI3
aI3
aI3
aI3
aI3
aI3
aI3
aI3
aI3
asS'score'
p4
(lp5
I19
aI19
aI19
aI19
aI19
aI19
aI19
aI19
aI19
aI19
aI19
aI19
aI19
aI19
aI19
asS'oppname'
p6
(lp7
S'Daniel Fang'
p8
ag8
ag8
ag8
ag8
ag8
ag8
ag8
ag8
ag8
ag8
ag8
ag8
ag8
ag8
asS'ELO'
p9
(lp10
I1500
aF1495.1612903225807
aF1491.7149131859544
aF1489.2590367902421
aF1487.5078913090385
aF1486.2585147369334
aF1485.3666937488883
aF1484.7298544456066
aF1484.274960863488
aF1483.9499595920654
aF1483.717723109936
aF1483.5517541064282
aF1483.4331333688629
aF1483.3483479764636
aF1483.2877440546824
aF1483.2444234734062
asS'opprank'
p11
(lp12
I1500
aF1504.8387096774193
aF1508.2850868140456
aF1510.7409632097579
aF1512.4921086909615
aF1513.7414852630666
aF1514.6333062511117
aF1515.2701455543934
aF1515.725039136512
aF1516.0500404079346
aF1516.282276890064
aF1516.4482458935718
aF1516.5668666311371
aF1516.6516520235364
aF1516.7122559453176
asS'password'
p13
g13
sS'name'
p14
S'Shawn Zhao'
p15
sb.